target datalayout = "e-m:e-p270:32:32-p271:32:32-p272:64:64-i64:64-i128:128-f80:128-n8:16:32:64-S128"
target triple = "x86_64-pc-linux-gnu"

; Function Attrs: null_pointer_is_valid sspstrong uwtable
define internal i32 @dissect_ansi_tcap_T_returnError_parameter(i1 noundef zeroext %0, ptr noundef %1, i32 noundef %2, ptr noundef %3, ptr noundef %4, i32 noundef %5) #0 {
  %7 = alloca i8, align 1
  %8 = alloca ptr, align 8
  %9 = alloca i32, align 4
  %10 = alloca ptr, align 8
  %11 = alloca ptr, align 8
  %12 = alloca i32, align 4
  %13 = zext i1 %0 to i8
  store i8 %13, ptr %7, align 1
  store ptr %1, ptr %8, align 8
  store i32 %2, ptr %9, align 4
  store ptr %3, ptr %10, align 8
  store ptr %4, ptr %11, align 8
  store i32 %5, ptr %12, align 4
  %14 = load ptr, ptr %8, align 8
  %15 = load ptr, ptr %10, align 8
  %16 = load ptr, ptr %11, align 8
  %17 = call zeroext i1 @find_tcap_subdissector(ptr noundef %14, ptr noundef %15, ptr noundef %16)
  br i1 %17, label %18, label %21

18:                                               ; preds = %6
  %19 = load ptr, ptr %8, align 8
  %20 = call i32 @tvb_reported_length(ptr noundef %19)
  store i32 %20, ptr %9, align 4
  br label %21

21:                                               ; preds = %18, %6
  %22 = load i32, ptr %9, align 4
  ret i32 %22
}